target datalayout = "e-m:e-p270:32:32-p271:32:32-p272:64:64-i64:64-i128:128-f80:128-n8:16:32:64-S128"
target triple = "x86_64-pc-linux-gnu"

%"class.std::filesystem::__cxx11::path" = type { %"class.std::__cxx11::basic_string", %"struct.std::filesystem::__cxx11::path::_List" }
%"class.std::__cxx11::basic_string" = type { %"struct.std::__cxx11::basic_string<char>::_Alloc_hider", i64, %union.anon }
%"struct.std::__cxx11::basic_string<char>::_Alloc_hider" = type { ptr }
%union.anon = type { i64, [8 x i8] }
%"struct.std::filesystem::__cxx11::path::_List" = type { %"class.std::unique_ptr" }
%"class.std::unique_ptr" = type { %"struct.std::__uniq_ptr_data" }
%"struct.std::__uniq_ptr_data" = type { %"class.std::__uniq_ptr_impl" }
%"class.std::__uniq_ptr_impl" = type { %"class.std::tuple" }
%"class.std::tuple" = type { %"struct.std::_Tuple_impl" }
%"struct.std::_Tuple_impl" = type { %"struct.std::_Head_base.1" }
%"struct.std::_Head_base.1" = type { ptr }

@.str = private unnamed_addr constant [127 x i8] c"generated/home/dtcxzyw/WorkSpace/Projects/compilers/llvm-opt-benchmark/bench/gromacs/gromacs/src/gromacs/math/3dtransforms.cpp\00", align 1
@.str.1 = private unnamed_addr constant [24 x i8] c"Error: invalid axis: %d\00", align 1

; Function Attrs: mustprogress nounwind uwtable
define linkonce_odr noundef float @_ZSt3sinf(float noundef %0) #0 comdat {
  %2 = alloca float, align 4
  store float %0, ptr %2, align 4
  %3 = load float, ptr %2, align 4
  %4 = call float @sinf(float noundef %3) #9
  ret float %4
}

; Function Attrs: mustprogress nounwind uwtable
define linkonce_odr noundef float @_ZSt3cosf(float noundef %0) #0 comdat {
  %2 = alloca float, align 4
  store float %0, ptr %2, align 4
  %3 = load float, ptr %2, align 4
  %4 = call float @cosf(float noundef %3) #9
  ret float %4
}

; Function Attrs: mustprogress nounwind uwtable
define void @_Z19gmx_mat4_init_unityPA4_f(ptr noundef %0) #0 {
  %2 = alloca ptr, align 8
  %3 = alloca i32, align 4
  %4 = alloca i32, align 4
  store ptr %0, ptr %2, align 8
  store i32 0, ptr %3, align 4
  br label %5

5:                                                ; preds = %37, %1
  %6 = load i32, ptr %3, align 4
  %7 = icmp slt i32 %6, 4
  br i1 %7, label %8, label %40

8:                                                ; preds = %5
  store i32 0, ptr %4, align 4
  br label %9

9:                                                ; preds = %33, %8
  %10 = load i32, ptr %4, align 4
  %11 = icmp slt i32 %10, 4
  br i1 %11, label %12, label %36

12:                                               ; preds = %9
  %13 = load i32, ptr %3, align 4
  %14 = load i32, ptr %4, align 4
  %15 = icmp eq i32 %13, %14
  br i1 %15, label %16, label %24

16:                                               ; preds = %12
  %17 = load ptr, ptr %2, align 8
  %18 = load i32, ptr %3, align 4
  %19 = sext i32 %18 to i64
  %20 = getelementptr inbounds [4 x float], ptr %17, i64 %19
  %21 = load i32, ptr %4, align 4
  %22 = sext i32 %21 to i64
  %23 = getelementptr inbounds [4 x float], ptr %20, i64 0, i64 %22
  store float 1.000000e+00, ptr %23, align 4
  br label %32

24:                                               ; preds = %12
  %25 = load ptr, ptr %2, align 8
  %26 = load i32, ptr %3, align 4
  %27 = sext i32 %26 to i64
  %28 = getelementptr inbounds [4 x float], ptr %25, i64 %27
  %29 = load i32, ptr %4, align 4
  %30 = sext i32 %29 to i64
  %31 = getelementptr inbounds [4 x float], ptr %28, i64 0, i64 %30
  store float 0.000000e+00, ptr %31, align 4
  br label %32

32:                                               ; preds = %24, %16
  br label %33

33:                                               ; preds = %32
  %34 = load i32, ptr %4, align 4
  %35 = add nsw i32 %34, 1
  store i32 %35, ptr %4, align 4
  br label %9, !llvm.loop !12

36:                                               ; preds = %9
  br label %37

37:                                               ; preds = %36
  %38 = load i32, ptr %3, align 4
  %39 = add nsw i32 %38, 1
  store i32 %39, ptr %3, align 4
  br label %5, !llvm.loop !13

40:                                               ; preds = %5
  ret void
}

; Function Attrs: mustprogress uwtable
define void @_Z22gmx_mat4_init_rotationifPA4_f(i32 noundef %0, float noundef %1, ptr noundef %2) #2 personality ptr @__gxx_personality_v0 {
  %4 = alloca i32, align 4
  %5 = alloca float, align 4
  %6 = alloca ptr, align 8
  %7 = alloca %"class.std::filesystem::__cxx11::path", align 8
  %8 = alloca ptr, align 8
  %9 = alloca i32, align 4
  store i32 %0, ptr %4, align 4
  store float %1, ptr %5, align 4
  store ptr %2, ptr %6, align 8
  %10 = load ptr, ptr %6, align 8
  call void @_Z19gmx_mat4_init_unityPA4_f(ptr noundef %10)
  %11 = load i32, ptr %4, align 4
  switch i32 %11, label %78 [
    i32 0, label %12
    i32 1, label %34
    i32 2, label %56
  ]

12:                                               ; preds = %3
  %13 = load float, ptr %5, align 4
  %14 = call noundef float @_ZSt3cosf(float noundef %13)
  %15 = load ptr, ptr %6, align 8
  %16 = getelementptr inbounds [4 x float], ptr %15, i64 1
  %17 = getelementptr inbounds [4 x float], ptr %16, i64 0, i64 1
  store float %14, ptr %17, align 4
  %18 = load float, ptr %5, align 4
  %19 = call noundef float @_ZSt3sinf(float noundef %18)
  %20 = fneg float %19
  %21 = load ptr, ptr %6, align 8
  %22 = getelementptr inbounds [4 x float], ptr %21, i64 1
  %23 = getelementptr inbounds [4 x float], ptr %22, i64 0, i64 2
  store float %20, ptr %23, align 4
  %24 = load float, ptr %5, align 4
  %25 = call noundef float @_ZSt3sinf(float noundef %24)
  %26 = load ptr, ptr %6, align 8
  %27 = getelementptr inbounds [4 x float], ptr %26, i64 2
  %28 = getelementptr inbounds [4 x float], ptr %27, i64 0, i64 1
  store float %25, ptr %28, align 4
  %29 = load float, ptr %5, align 4
  %30 = call noundef float @_ZSt3cosf(float noundef %29)
  %31 = load ptr, ptr %6, align 8
  %32 = getelementptr inbounds [4 x float], ptr %31, i64 2
  %33 = getelementptr inbounds [4 x float], ptr %32, i64 0, i64 2
  store float %30, ptr %33, align 4
  br label %85

34:                                               ; preds = %3
  %35 = load float, ptr %5, align 4
  %36 = call noundef float @_ZSt3cosf(float noundef %35)
  %37 = load ptr, ptr %6, align 8
  %38 = getelementptr inbounds [4 x float], ptr %37, i64 0
  %39 = getelementptr inbounds [4 x float], ptr %38, i64 0, i64 0
  store float %36, ptr %39, align 4
  %40 = load float, ptr %5, align 4
  %41 = call noundef float @_ZSt3sinf(float noundef %40)
  %42 = load ptr, ptr %6, align 8
  %43 = getelementptr inbounds [4 x float], ptr %42, i64 0
  %44 = getelementptr inbounds [4 x float], ptr %43, i64 0, i64 2
  store float %41, ptr %44, align 4
  %45 = load float, ptr %5, align 4
  %46 = call noundef float @_ZSt3sinf(float noundef %45)
  %47 = fneg float %46
  %48 = load ptr, ptr %6, align 8
  %49 = getelementptr inbounds [4 x float], ptr %48, i64 2
  %50 = getelementptr inbounds [4 x float], ptr %49, i64 0, i64 0
  store float %47, ptr %50, align 4
  %51 = load float, ptr %5, align 4
  %52 = call noundef float @_ZSt3cosf(float noundef %51)
  %53 = load ptr, ptr %6, align 8
  %54 = getelementptr inbounds [4 x float], ptr %53, i64 2
  %55 = getelementptr inbounds [4 x float], ptr %54, i64 0, i64 2
  store float %52, ptr %55, align 4
  br label %85

56:                                               ; preds = %3
  %57 = load float, ptr %5, align 4
  %58 = call noundef float @_ZSt3cosf(float noundef %57)
  %59 = load ptr, ptr %6, align 8
  %60 = getelementptr inbounds [4 x float], ptr %59, i64 0
  %61 = getelementptr inbounds [4 x float], ptr %60, i64 0, i64 0
  store float %58, ptr %61, align 4
  %62 = load float, ptr %5, align 4
  %63 = call noundef float @_ZSt3sinf(float noundef %62)
  %64 = fneg float %63
  %65 = load ptr, ptr %6, align 8
  %66 = getelementptr inbounds [4 x float], ptr %65, i64 0
  %67 = getelementptr inbounds [4 x float], ptr %66, i64 0, i64 1
  store float %64, ptr %67, align 4
  %68 = load float, ptr %5, align 4
  %69 = call noundef float @_ZSt3sinf(float noundef %68)
  %70 = load ptr, ptr %6, align 8
  %71 = getelementptr inbounds [4 x float], ptr %70, i64 1
  %72 = getelementptr inbounds [4 x float], ptr %71, i64 0, i64 0
  store float %69, ptr %72, align 4
  %73 = load float, ptr %5, align 4
  %74 = call noundef float @_ZSt3cosf(float noundef %73)
  %75 = load ptr, ptr %6, align 8
  %76 = getelementptr inbounds [4 x float], ptr %75, i64 1
  %77 = getelementptr inbounds [4 x float], ptr %76, i64 0, i64 1
  store float %74, ptr %77, align 4
  br label %85

78:                                               ; preds = %3
  call void @_ZNSt10filesystem7__cxx114pathC2IA127_cS1_EERKT_NS1_6formatE(ptr noundef nonnull align 8 dereferenceable(40) %7, ptr noundef nonnull align 1 dereferenceable(127) @.str, i8 noundef zeroext 2)
  %79 = load i32, ptr %4, align 4
  invoke void (i32, ptr, i32, ptr, ...) @_Z9gmx_fataliRKNSt10filesystem7__cxx114pathEiPKcz(i32 noundef 0, ptr noundef nonnull align 8 dereferenceable(40) %7, i32 noundef 128, ptr noundef @.str.1, i32 noundef %79) #8
          to label %80 unwind label %81

80:                                               ; preds = %78
  unreachable

81:                                               ; preds = %78
  %82 = landingpad { ptr, i32 }
          cleanup
  %83 = extractvalue { ptr, i32 } %82, 0
  store ptr %83, ptr %8, align 8
  %84 = extractvalue { ptr, i32 } %82, 1
  store i32 %84, ptr %9, align 4
  call void @_ZNSt10filesystem7__cxx114pathD2Ev(ptr noundef nonnull align 8 dereferenceable(40) %7) #9
  br label %86

85:                                               ; preds = %56, %34, %12
  ret void

86:                                               ; preds = %81
  %87 = load ptr, ptr %8, align 8
  %88 = load i32, ptr %9, align 4
  %89 = insertvalue { ptr, i32 } poison, ptr %87, 0
  %90 = insertvalue { ptr, i32 } %89, i32 %88, 1
  resume { ptr, i32 } %90
}