; Function Attrs: mustprogress uwtable
define void @_Z22gmx_mat4_init_rotationifPA4_f(i32 noundef %0, float noundef %1, ptr nocapture noundef writeonly %2) local_unnamed_addr #3 personality ptr @__gxx_personality_v0 {
  %4 = alloca %"class.std::filesystem::__cxx11::path", align 8
  br label %.preheader.i

.preheader.i:                                     ; preds = %8, %3
  %indvars.iv15.i = phi i64 [ 0, %3 ], [ %indvars.iv.next16.i, %8 ]
  br label %5

5:                                                ; preds = %5, %.preheader.i
  %indvars.iv.i = phi i64 [ 0, %.preheader.i ], [ %indvars.iv.next.i, %5 ]
  %6 = icmp eq i64 %indvars.iv15.i, %indvars.iv.i
  %spec.select.i = select i1 %6, float 1.000000e+00, float 0.000000e+00
  %7 = getelementptr inbounds [4 x float], ptr %2, i64 %indvars.iv15.i, i64 %indvars.iv.i
  store float %spec.select.i, ptr %7, align 4
  %indvars.iv.next.i = add nuw nsw i64 %indvars.iv.i, 1
  %exitcond.not.i = icmp eq i64 %indvars.iv.next.i, 4
  br i1 %exitcond.not.i, label %8, label %5, !llvm.loop !12

8:                                                ; preds = %5
  %indvars.iv.next16.i = add nuw nsw i64 %indvars.iv15.i, 1
  %exitcond18.not.i = icmp eq i64 %indvars.iv.next16.i, 4
  br i1 %exitcond18.not.i, label %_Z19gmx_mat4_init_unityPA4_f.exit, label %.preheader.i, !llvm.loop !13

_Z19gmx_mat4_init_unityPA4_f.exit:                ; preds = %8
  switch i32 %0, label %28 [
    i32 0, label %9
    i32 1, label %16
    i32 2, label %22
  ]

9:                                                ; preds = %_Z19gmx_mat4_init_unityPA4_f.exit
  %10 = tail call noundef float @cosf(float noundef %1) #14
  %11 = getelementptr inbounds i8, ptr %2, i64 20
  store float %10, ptr %11, align 4
  %12 = tail call noundef float @sinf(float noundef %1) #14
  %13 = fneg float %12
  %14 = getelementptr inbounds i8, ptr %2, i64 24
  store float %13, ptr %14, align 4
  %15 = tail call noundef float @sinf(float noundef %1) #14
  br label %32

16:                                               ; preds = %_Z19gmx_mat4_init_unityPA4_f.exit
  %17 = tail call noundef float @cosf(float noundef %1) #14
  store float %17, ptr %2, align 4
  %18 = tail call noundef float @sinf(float noundef %1) #14
  %19 = getelementptr inbounds i8, ptr %2, i64 8
  store float %18, ptr %19, align 4
  %20 = tail call noundef float @sinf(float noundef %1) #14
  %21 = fneg float %20
  br label %32

22:                                               ; preds = %_Z19gmx_mat4_init_unityPA4_f.exit
  %23 = tail call noundef float @cosf(float noundef %1) #14
  store float %23, ptr %2, align 4
  %24 = tail call noundef float @sinf(float noundef %1) #14
  %25 = fneg float %24
  %26 = getelementptr inbounds i8, ptr %2, i64 4
  store float %25, ptr %26, align 4
  %27 = tail call noundef float @sinf(float noundef %1) #14
  br label %32

28:                                               ; preds = %_Z19gmx_mat4_init_unityPA4_f.exit
  call void @_ZNSt10filesystem7__cxx114pathC2IA127_cS1_EERKT_NS1_6formatE(ptr noundef nonnull align 8 dereferenceable(40) %4, ptr noundef nonnull align 1 dereferenceable(127) @.str, i8 noundef zeroext 2)
  invoke void (i32, ptr, i32, ptr, ...) @_Z9gmx_fataliRKNSt10filesystem7__cxx114pathEiPKcz(i32 noundef 0, ptr noundef nonnull align 8 dereferenceable(40) %4, i32 noundef 128, ptr noundef nonnull @.str.1, i32 noundef %0) #15
          to label %29 unwind label %30

29:                                               ; preds = %28
  unreachable

30:                                               ; preds = %28
  %31 = landingpad { ptr, i32 }
          cleanup
  call void @_ZNSt10filesystem7__cxx114pathD2Ev(ptr noundef nonnull align 8 dereferenceable(40) %4) #14
  resume { ptr, i32 } %31

32:                                               ; preds = %22, %16, %9
  %.sink31 = phi i64 [ 16, %22 ], [ 32, %16 ], [ 36, %9 ]
  %.sink = phi float [ %27, %22 ], [ %21, %16 ], [ %15, %9 ]
  %.sink29 = phi i64 [ 20, %22 ], [ 40, %16 ], [ 40, %9 ]
  %33 = getelementptr inbounds i8, ptr %2, i64 %.sink31
  store float %.sink, ptr %33, align 4
  %34 = tail call noundef float @cosf(float noundef %1) #14
  %35 = getelementptr inbounds i8, ptr %2, i64 %.sink29
  store float %34, ptr %35, align 4
  ret void
}